; Function Attrs: mustprogress uwtable
define void @_ZN3zmq8server_tC2EPNS_5ctx_tEji(ptr noundef nonnull align 8 dereferenceable(1932) %this, ptr noundef %parent_, i32 noundef %tid_, i32 noundef %sid_) unnamed_addr #0 align 2 personality ptr @__gxx_personality_v0 {
entry:
  tail call void @_ZN3zmq13socket_base_tC2EPNS_5ctx_tEjib(ptr noundef nonnull align 8 dereferenceable(1825) %this, ptr noundef %parent_, i32 noundef %tid_, i32 noundef %sid_, i1 noundef zeroext true)
  store ptr getelementptr inbounds ({ [47 x ptr], [4 x ptr], [7 x ptr], [8 x ptr] }, ptr @_ZTVN3zmq8server_tE, i64 0, i32 0, i64 2), ptr %this, align 8
  %add.ptr = getelementptr inbounds i8, ptr %this, i64 1448
  store ptr getelementptr inbounds ({ [47 x ptr], [4 x ptr], [7 x ptr], [8 x ptr] }, ptr @_ZTVN3zmq8server_tE, i64 0, i32 1, i64 2), ptr %add.ptr, align 8
  %add.ptr2 = getelementptr inbounds i8, ptr %this, i64 1464
  store ptr getelementptr inbounds ({ [47 x ptr], [4 x ptr], [7 x ptr], [8 x ptr] }, ptr @_ZTVN3zmq8server_tE, i64 0, i32 2, i64 2), ptr %add.ptr2, align 8
  %add.ptr3 = getelementptr inbounds i8, ptr %this, i64 1472
  store ptr getelementptr inbounds ({ [47 x ptr], [4 x ptr], [7 x ptr], [8 x ptr] }, ptr @_ZTVN3zmq8server_tE, i64 0, i32 3, i64 2), ptr %add.ptr3, align 8
  %_fq = getelementptr inbounds i8, ptr %this, i64 1832
  invoke void @_ZN3zmq4fq_tC1Ev(ptr noundef nonnull align 8 dereferenceable(41) %_fq)
          to label %invoke.cont unwind label %lpad

invoke.cont:                                      ; preds = %entry
  %0 = getelementptr inbounds i8, ptr %this, i64 1888
  store i32 0, ptr %0, align 8
  %_M_parent.i.i.i.i.i = getelementptr inbounds i8, ptr %this, i64 1896
  store ptr null, ptr %_M_parent.i.i.i.i.i, align 8
  %_M_left.i.i.i.i.i = getelementptr inbounds i8, ptr %this, i64 1904
  store ptr %0, ptr %_M_left.i.i.i.i.i, align 8
  %_M_right.i.i.i.i.i = getelementptr inbounds i8, ptr %this, i64 1912
  store ptr %0, ptr %_M_right.i.i.i.i.i, align 8
  %_M_node_count.i.i.i.i.i = getelementptr inbounds i8, ptr %this, i64 1920
  store i64 0, ptr %_M_node_count.i.i.i.i.i, align 8
  %call = invoke noundef i32 @_ZN3zmq15generate_randomEv()
          to label %invoke.cont5 unwind label %lpad4

invoke.cont5:                                     ; preds = %invoke.cont
  %_next_routing_id = getelementptr inbounds i8, ptr %this, i64 1928
  store i32 %call, ptr %_next_routing_id, align 8
  %type = getelementptr inbounds i8, ptr %this, i64 332
  store i8 12, ptr %type, align 4
  %can_send_hello_msg = getelementptr inbounds i8, ptr %this, i64 1256
  store i8 1, ptr %can_send_hello_msg, align 8
  %can_recv_disconnect_msg = getelementptr inbounds i8, ptr %this, i64 1288
  store i8 1, ptr %can_recv_disconnect_msg, align 8
  ret void

lpad:                                             ; preds = %entry
  %1 = landingpad { ptr, i32 }
          cleanup
  br label %ehcleanup

lpad4:                                            ; preds = %invoke.cont
  %2 = landingpad { ptr, i32 }
          cleanup
  %_out_pipes = getelementptr inbounds i8, ptr %this, i64 1880
  tail call void @_ZNSt3mapIjN3zmq8server_t9outpipe_tESt4lessIjESaISt4pairIKjS2_EEED2Ev(ptr noundef nonnull align 8 dereferenceable(48) %_out_pipes) #13
  tail call void @_ZN3zmq4fq_tD1Ev(ptr noundef nonnull align 8 dereferenceable(41) %_fq) #13
  br label %ehcleanup

ehcleanup:                                        ; preds = %lpad4, %lpad
  %.pn = phi { ptr, i32 } [ %2, %lpad4 ], [ %1, %lpad ]
  tail call void @_ZN3zmq13socket_base_tD2Ev(ptr noundef nonnull align 8 dereferenceable(1825) %this) #13
  resume { ptr, i32 } %.pn
}